#include <math.h>
#include <stdio.h>
#include <stdlib.h>
#include <string.h>

int main()
{int n,k,i,j,max,min,a=0;
int sz[1000];
scanf("%d %d",&n,&k);
for(i=0;i<n;i++)
	{scanf("%d",&(sz[i]));}
for(j=0;j<n-1;j++)
{	min=sz[j];
	for(i=j+1;i<n;i++)
		{max=sz[i];
	if(k==max+min)
	{a=a+1;}
	}
}
if(a>0){printf("yes");}
else{printf("no");}
return 0;
}